; Function Attrs: mustprogress uwtable
define hidden void @_ZNK5osgeo4proj9operation26InverseCoordinateOperation19_exportToPROJStringEPNS0_2io19PROJStringFormatterE(ptr noundef nonnull readonly align 8 captures(none) dereferenceable(25) %0, ptr noundef nonnull %1) unnamed_addr #0 align 2 {
  tail call void @_ZN5osgeo4proj2io19PROJStringFormatter14startInversionEv(ptr noundef nonnull align 8 dereferenceable(8) %1)
  %3 = getelementptr inbounds nuw i8, ptr %0, i64 8
  %4 = load ptr, ptr %3, align 8, !tbaa !65
  %5 = getelementptr inbounds nuw i8, ptr %4, i64 48
  %6 = load ptr, ptr %5, align 8, !tbaa !3
  %7 = getelementptr inbounds nuw i8, ptr %6, i64 16
  %8 = load ptr, ptr %7, align 8
  tail call void %8(ptr noundef nonnull align 8 dereferenceable(8) %5, ptr noundef nonnull %1)
  tail call void @_ZN5osgeo4proj2io19PROJStringFormatter13stopInversionEv(ptr noundef nonnull align 8 dereferenceable(8) %1)
  ret void
}